target datalayout = "e-m:e-p270:32:32-p271:32:32-p272:64:64-i64:64-i128:128-f80:128-n8:16:32:64-S128"
target triple = "x86_64-pc-linux-gnu"

%struct.H5VL_blob_specific_args_t = type { i32, %union.anon.13 }
%union.anon.13 = type { %struct.anon.14 }
%struct.anon.14 = type { ptr }

@H5T_init_g = external global i8, align 1
@H5_libterm_g = external global i8, align 1
@.str = private unnamed_addr constant [100 x i8] c"generated/home/dtcxzyw/WorkSpace/Projects/compilers/llvm-opt-benchmark/bench/hdf5/hdf5/src/H5Tref.c\00", align 1
@H5E_DATATYPE_g = external global i64, align 8
@H5E_CANTSET_g = external global i64, align 8
@__func__.H5T__ref_disk_setnull = private unnamed_addr constant [22 x i8] c"H5T__ref_disk_setnull\00", align 1
@H5E_CANTREMOVE_g = external global i64, align 8
@.str.26 = private unnamed_addr constant [22 x i8] c"unable to delete blob\00", align 1
@.str.27 = private unnamed_addr constant [33 x i8] c"unable to set a blob ID to 'nil'\00", align 1

; Function Attrs: nounwind uwtable
define internal i32 @H5T__ref_disk_setnull(ptr noundef %0, ptr noundef %1, ptr noundef %2) #0 {
  %4 = alloca ptr, align 8
  %5 = alloca ptr, align 8
  %6 = alloca ptr, align 8
  %7 = alloca %struct.H5VL_blob_specific_args_t, align 8
  %8 = alloca ptr, align 8
  %9 = alloca ptr, align 8
  %10 = alloca i32, align 4
  %11 = alloca i8, align 1
  store ptr %0, ptr %4, align 8, !tbaa !8
  store ptr %1, ptr %5, align 8, !tbaa !39
  store ptr %2, ptr %6, align 8, !tbaa !39
  call void @llvm.lifetime.start.p0(i64 16, ptr %7) #8
  call void @llvm.lifetime.start.p0(i64 8, ptr %8) #8
  %12 = load ptr, ptr %5, align 8, !tbaa !39
  store ptr %12, ptr %8, align 8, !tbaa !44
  call void @llvm.lifetime.start.p0(i64 8, ptr %9) #8
  %13 = load ptr, ptr %6, align 8, !tbaa !39
  store ptr %13, ptr %9, align 8, !tbaa !44
  call void @llvm.lifetime.start.p0(i64 4, ptr %10) #8
  store i32 0, ptr %10, align 4, !tbaa !10
  call void @llvm.lifetime.start.p0(i64 1, ptr %11) #8
  store i8 0, ptr %11, align 1, !tbaa !12
  %14 = load i8, ptr @H5T_init_g, align 1, !tbaa !12, !range !14, !noundef !15
  %15 = trunc i8 %14 to i1
  br i1 %15, label %20, label %16

16:                                               ; preds = %3
  %17 = load i8, ptr @H5_libterm_g, align 1, !tbaa !12, !range !14, !noundef !15
  %18 = trunc i8 %17 to i1
  %19 = xor i1 %18, true
  br label %20

20:                                               ; preds = %16, %3
  %21 = phi i1 [ true, %3 ], [ %19, %16 ]
  %22 = xor i1 %21, true
  %23 = xor i1 %22, true
  %24 = zext i1 %23 to i32
  %25 = sext i32 %24 to i64
  %26 = call i64 @llvm.expect.i64(i64 %25, i64 1)
  %27 = icmp ne i64 %26, 0
  br i1 %27, label %28, label %107

28:                                               ; preds = %20
  br label %29

29:                                               ; preds = %28
  br label %30

30:                                               ; preds = %29
  br label %31

31:                                               ; preds = %30
  %32 = load ptr, ptr %9, align 8, !tbaa !44
  %33 = icmp ne ptr %32, null
  br i1 %33, label %34, label %62

34:                                               ; preds = %31
  %35 = load ptr, ptr %9, align 8, !tbaa !44
  %36 = getelementptr inbounds nuw i8, ptr %35, i64 6
  store ptr %36, ptr %9, align 8, !tbaa !44
  %37 = getelementptr inbounds nuw %struct.H5VL_blob_specific_args_t, ptr %7, i32 0, i32 0
  store i32 0, ptr %37, align 8, !tbaa !54
  %38 = load ptr, ptr %4, align 8, !tbaa !8
  %39 = load ptr, ptr %9, align 8, !tbaa !44
  %40 = call i32 @H5VL_blob_specific(ptr noundef %38, ptr noundef %39, ptr noundef %7)
  %41 = icmp slt i32 %40, 0
  br i1 %41, label %42, label %61

42:                                               ; preds = %34
  br label %43

43:                                               ; preds = %42
  br label %44

44:                                               ; preds = %43
  br label %45

45:                                               ; preds = %44
  %46 = load i64, ptr @H5E_DATATYPE_g, align 8, !tbaa !28
  %47 = load i64, ptr @H5E_CANTREMOVE_g, align 8, !tbaa !28
  %48 = call i32 (ptr, ptr, i32, i64, i64, ptr, ...) @H5E_printf_stack(ptr noundef @.str, ptr noundef @__func__.H5T__ref_disk_setnull, i32 noundef 838, i64 noundef %46, i64 noundef %47, ptr noundef @.str.26)
  br label %49

49:                                               ; preds = %45
  br label %50

50:                                               ; preds = %49
  store i8 1, ptr %11, align 1, !tbaa !12
  %51 = load i8, ptr %11, align 1, !tbaa !12, !range !14, !noundef !15
  %52 = trunc i8 %51 to i1
  %53 = zext i1 %52 to i8
  store i8 %53, ptr %11, align 1, !tbaa !12
  br label %54

54:                                               ; preds = %50
  br label %55

55:                                               ; preds = %54
  br label %56

56:                                               ; preds = %55
  store i32 -1, ptr %10, align 4, !tbaa !10
  br label %106

57:                                               ; No predecessors!
  br label %58

58:                                               ; preds = %57
  br label %59

59:                                               ; preds = %58
  br label %60

60:                                               ; preds = %59
  br label %61

61:                                               ; preds = %60, %34
  br label %62

62:                                               ; preds = %61, %31
  %63 = load ptr, ptr %8, align 8, !tbaa !44
  call void @llvm.memset.p0.i64(ptr align 1 %63, i8 0, i64 2, i1 false)
  %64 = load ptr, ptr %8, align 8, !tbaa !44
  %65 = getelementptr inbounds nuw i8, ptr %64, i64 2
  store ptr %65, ptr %8, align 8, !tbaa !44
  br label %66

66:                                               ; preds = %62
  %67 = load ptr, ptr %8, align 8, !tbaa !44
  store i8 0, ptr %67, align 1, !tbaa !25
  %68 = load ptr, ptr %8, align 8, !tbaa !44
  %69 = getelementptr inbounds nuw i8, ptr %68, i32 1
  store ptr %69, ptr %8, align 8, !tbaa !44
  %70 = load ptr, ptr %8, align 8, !tbaa !44
  store i8 0, ptr %70, align 1, !tbaa !25
  %71 = load ptr, ptr %8, align 8, !tbaa !44
  %72 = getelementptr inbounds nuw i8, ptr %71, i32 1
  store ptr %72, ptr %8, align 8, !tbaa !44
  %73 = load ptr, ptr %8, align 8, !tbaa !44
  store i8 0, ptr %73, align 1, !tbaa !25
  %74 = load ptr, ptr %8, align 8, !tbaa !44
  %75 = getelementptr inbounds nuw i8, ptr %74, i32 1
  store ptr %75, ptr %8, align 8, !tbaa !44
  %76 = load ptr, ptr %8, align 8, !tbaa !44
  store i8 0, ptr %76, align 1, !tbaa !25
  %77 = load ptr, ptr %8, align 8, !tbaa !44
  %78 = getelementptr inbounds nuw i8, ptr %77, i32 1
  store ptr %78, ptr %8, align 8, !tbaa !44
  br label %79

79:                                               ; preds = %66
  br label %80

80:                                               ; preds = %79
  %81 = getelementptr inbounds nuw %struct.H5VL_blob_specific_args_t, ptr %7, i32 0, i32 0
  store i32 2, ptr %81, align 8, !tbaa !54
  %82 = load ptr, ptr %4, align 8, !tbaa !8
  %83 = load ptr, ptr %8, align 8, !tbaa !44
  %84 = call i32 @H5VL_blob_specific(ptr noundef %82, ptr noundef %83, ptr noundef %7)
  %85 = icmp slt i32 %84, 0
  br i1 %85, label %86, label %105

86:                                               ; preds = %80
  br label %87

87:                                               ; preds = %86
  br label %88

88:                                               ; preds = %87
  br label %89

89:                                               ; preds = %88
  %90 = load i64, ptr @H5E_DATATYPE_g, align 8, !tbaa !28
  %91 = load i64, ptr @H5E_CANTSET_g, align 8, !tbaa !28
  %92 = call i32 (ptr, ptr, i32, i64, i64, ptr, ...) @H5E_printf_stack(ptr noundef @.str, ptr noundef @__func__.H5T__ref_disk_setnull, i32 noundef 853, i64 noundef %90, i64 noundef %91, ptr noundef @.str.27)
  br label %93

93:                                               ; preds = %89
  br label %94

94:                                               ; preds = %93
  store i8 1, ptr %11, align 1, !tbaa !12
  %95 = load i8, ptr %11, align 1, !tbaa !12, !range !14, !noundef !15
  %96 = trunc i8 %95 to i1
  %97 = zext i1 %96 to i8
  store i8 %97, ptr %11, align 1, !tbaa !12
  br label %98

98:                                               ; preds = %94
  br label %99

99:                                               ; preds = %98
  br label %100

100:                                              ; preds = %99
  store i32 -1, ptr %10, align 4, !tbaa !10
  br label %106

101:                                              ; No predecessors!
  br label %102

102:                                              ; preds = %101
  br label %103

103:                                              ; preds = %102
  br label %104

104:                                              ; preds = %103
  br label %105

105:                                              ; preds = %104, %80
  br label %106

106:                                              ; preds = %105, %100, %56
  br label %107

107:                                              ; preds = %106, %20
  %108 = load i32, ptr %10, align 4, !tbaa !10
  call void @llvm.lifetime.end.p0(i64 1, ptr %11) #8
  call void @llvm.lifetime.end.p0(i64 4, ptr %10) #8
  call void @llvm.lifetime.end.p0(i64 8, ptr %9) #8
  call void @llvm.lifetime.end.p0(i64 8, ptr %8) #8
  call void @llvm.lifetime.end.p0(i64 16, ptr %7) #8
  ret i32 %108
}