; Function Attrs: nounwind uwtable
define internal range(i32 -1, 1) i32 @H5T__ref_disk_setnull(ptr noundef %0, ptr noundef %1, ptr noundef %2) #0 {
  %4 = alloca %struct.H5VL_blob_specific_args_t, align 8
  call void @llvm.lifetime.start.p0(i64 16, ptr nonnull %4) #11
  %5 = load i8, ptr @H5T_init_g, align 1, !tbaa !3, !range !7, !noundef !8
  %6 = trunc nuw i8 %5 to i1
  %7 = load i8, ptr @H5_libterm_g, align 1, !range !7
  %8 = trunc nuw i8 %7 to i1
  %9 = xor i1 %8, true
  %10 = select i1 %6, i1 true, i1 %9
  br i1 %10, label %11, label %28, !prof !9

11:                                               ; preds = %3
  %.not = icmp eq ptr %2, null
  br i1 %.not, label %20, label %12

12:                                               ; preds = %11
  %13 = getelementptr inbounds nuw i8, ptr %2, i64 6
  store i32 0, ptr %4, align 8, !tbaa !44
  %14 = call i32 @H5VL_blob_specific(ptr noundef %0, ptr noundef nonnull %13, ptr noundef nonnull %4) #11
  %15 = icmp slt i32 %14, 0
  br i1 %15, label %16, label %20

16:                                               ; preds = %12
  %17 = load i64, ptr @H5E_DATATYPE_g, align 8, !tbaa !26
  %18 = load i64, ptr @H5E_CANTREMOVE_g, align 8, !tbaa !26
  %19 = call i32 (ptr, ptr, i32, i64, i64, ptr, ...) @H5E_printf_stack(ptr noundef nonnull @.str, ptr noundef nonnull @__func__.H5T__ref_disk_setnull, i32 noundef 838, i64 noundef %17, i64 noundef %18, ptr noundef nonnull @.str.26) #11
  br label %28

20:                                               ; preds = %12, %11
  %21 = getelementptr inbounds nuw i8, ptr %1, i64 6
  call void @llvm.memset.p0.i64(ptr noundef nonnull align 1 dereferenceable(6) %1, i8 0, i64 6, i1 false)
  store i32 2, ptr %4, align 8, !tbaa !44
  %22 = call i32 @H5VL_blob_specific(ptr noundef %0, ptr noundef nonnull %21, ptr noundef nonnull %4) #11
  %23 = icmp slt i32 %22, 0
  br i1 %23, label %24, label %28

24:                                               ; preds = %20
  %25 = load i64, ptr @H5E_DATATYPE_g, align 8, !tbaa !26
  %26 = load i64, ptr @H5E_CANTSET_g, align 8, !tbaa !26
  %27 = call i32 (ptr, ptr, i32, i64, i64, ptr, ...) @H5E_printf_stack(ptr noundef nonnull @.str, ptr noundef nonnull @__func__.H5T__ref_disk_setnull, i32 noundef 853, i64 noundef %25, i64 noundef %26, ptr noundef nonnull @.str.27) #11
  br label %28

28:                                               ; preds = %16, %24, %20, %3
  %.0 = phi i32 [ -1, %16 ], [ -1, %24 ], [ 0, %20 ], [ 0, %3 ]
  call void @llvm.lifetime.end.p0(i64 16, ptr nonnull %4) #11
  ret i32 %.0
}